; Function Attrs: mustprogress nounwind uwtable
define hidden void @_ZN17pull_nested_quantD2Ev(ptr noundef nonnull readonly align 8 captures(none) dereferenceable(8) %0) unnamed_addr #4 align 2 personality ptr @__gxx_personality_v0 {
  %2 = load ptr, ptr %0, align 8, !tbaa !155
  %3 = icmp eq ptr %2, null
  br i1 %3, label %_Z7deallocIN17pull_nested_quant3impEEvPT_.exit, label %4

4:                                                ; preds = %1
  store ptr getelementptr inbounds nuw inrange(-16, 16) (i8, ptr @_ZTVN17pull_nested_quant3imp2rwE, i64 16), ptr %2, align 8, !tbaa !3
  %5 = getelementptr inbounds nuw i8, ptr %2, i64 536
  tail call void @_ZN17pull_nested_quant3imp6rw_cfgD2Ev(ptr noundef nonnull align 8 dereferenceable(40) %5) #19
  tail call void @_ZN12rewriter_tplIN17pull_nested_quant3imp6rw_cfgEED2Ev(ptr noundef nonnull align 8 dereferenceable(576) %2) #19
  invoke void @_ZN6memory10deallocateEPv(ptr noundef nonnull %2)
          to label %_Z7deallocIN17pull_nested_quant3impEEvPT_.exit unwind label %6

_Z7deallocIN17pull_nested_quant3impEEvPT_.exit:   ; preds = %1, %4
  ret void

6:                                                ; preds = %4
  %7 = landingpad { ptr, i32 }
          catch ptr null
  %8 = extractvalue { ptr, i32 } %7, 0
  tail call void @__clang_call_terminate(ptr %8) #20
  unreachable
}